Certificate:
    Data:
        Version: 3 (0x2)
        Serial Number: 2 (0x2)
    Signature Algorithm: sha1WithRSAEncryption
        Issuer: DC=org, DC=simple, O=Simple Inc, OU=Simple Root CA, CN=Simple Root CA
        Validity
            Not Before: Nov 14 04:15:13 2022 GMT
            Not After : Nov 13 04:15:13 2032 GMT
        Subject: DC=org, DC=simple, O=Simple Inc, OU=Simple Signing CA, CN=Simple Signing CA
        Subject Public Key Info:
            Public Key Algorithm: rsaEncryption
                Public-Key: (2048 bit)
                Modulus:
                    00:b7:34:98:64:57:30:01:5e:24:30:1d:39:0c:87:
                    0c:73:84:8a:cc:12:68:15:49:e9:4c:c0:a7:2a:d1:
                    6c:93:85:7b:fc:ac:c4:a8:a2:f5:02:d4:44:3d:eb:
                    6d:d6:08:31:27:16:08:4b:27:d1:2f:c3:a8:fe:24:
                    5a:34:0d:71:cc:2b:70:d9:5b:d7:85:5f:c5:a1:41:
                    f9:dd:3b:eb:aa:df:b5:4a:1d:80:8c:cb:9c:7a:f6:
                    5c:3e:11:24:82:62:b0:89:90:d4:e0:f0:ad:ea:3f:
                    cb:ae:1e:32:f2:f5:26:39:5f:b4:f7:48:d0:29:1b:
                    33:70:11:c6:72:6a:18:1d:72:83:41:30:75:84:1d:
                    f8:d1:4d:70:4f:5e:8e:15:91:70:cf:77:95:ef:b4:
                    e1:7f:7b:99:d6:27:43:4d:ef:8d:02:58:a1:11:69:
                    53:ca:21:72:9c:02:3f:86:e4:52:7a:b3:ca:41:c4:
                    51:bc:4a:84:be:17:4d:0a:f6:7a:b8:bf:26:1c:bb:
                    8e:67:48:b4:82:73:85:57:bf:10:bd:0e:48:b1:12:
                    be:f5:de:8c:de:a7:ff:6f:c9:c6:0c:9b:f0:26:06:
                    d6:e0:2b:34:1a:95:a7:63:6b:72:db:8a:e9:04:2c:
                    66:77:b9:a6:f4:04:19:0b:49:5d:9a:5e:eb:9d:4d:
                    45:db
                Exponent: 65537 (0x10001)
        X509v3 extensions:
            X509v3 Key Usage: critical
                Certificate Sign, CRL Sign
            X509v3 Basic Constraints: critical
                CA:TRUE, pathlen:0
            X509v3 Subject Key Identifier: 
                6F:10:F1:1D:27:1F:8A:BC:6C:43:32:76:96:60:BC:47:F5:6D:48:85
            X509v3 Authority Key Identifier: 
                keyid:A1:63:EF:6C:88:36:67:58:97:C8:44:EC:ED:0E:60:D5:B4:9B:67:3F

    Signature Algorithm: sha1WithRSAEncryption
         97:7a:6b:6c:ae:10:3c:25:6c:9e:1b:25:d1:f8:7a:4a:e1:e6:
         1c:a4:7a:20:00:7d:95:8d:01:ea:5c:3d:6f:5f:2a:bf:d9:78:
         52:80:c7:f2:47:2a:25:6d:aa:6b:1f:0d:00:b0:b6:09:8e:eb:
         3b:4d:25:22:c2:a2:1b:1c:c5:4c:42:56:32:fc:b8:a5:02:9d:
         8d:0e:6c:88:e6:c1:f9:8e:a9:ba:11:9a:1a:e3:b3:ca:7a:af:
         a7:62:f3:36:e0:ef:d8:ef:b0:08:6a:0c:86:ec:8d:12:9c:12:
         63:fc:07:26:61:a1:c0:ec:5e:25:20:cc:d1:67:bb:90:83:0e:
         11:5e:09:f5:67:5e:40:4c:1b:65:4f:42:6e:17:7b:7a:18:40:
         b9:83:3d:45:27:f5:f3:d7:9f:bc:4a:a5:b5:8c:a5:9b:40:d9:
         b0:b9:74:9d:21:83:7c:89:15:c9:44:46:c5:37:ee:dc:3b:95:
         dc:11:fe:eb:dc:ff:25:4f:2f:6f:b9:97:0f:15:cb:9c:e5:bd:
         e1:9d:d1:eb:73:34:68:64:4c:fb:0f:58:59:cb:74:cf:b3:88:
         b9:7b:52:2c:14:16:f3:34:0f:d9:29:1c:f9:3b:ee:f7:dd:e0:
         28:fe:14:8a:a2:01:e1:86:2b:85:54:32:93:da:7b:ea:b7:5f:
         c9:6f:91:7b
-----BEGIN CERTIFICATE-----
MIIDzzCCAregAwIBAgIBAjANBgkqhkiG9w0BAQUFADB0MRMwEQYKCZImiZPyLGQB
GRYDb3JnMRYwFAYKCZImiZPyLGQBGRYGc2ltcGxlMRMwEQYDVQQKDApTaW1wbGUg
SW5jMRcwFQYDVQQLDA5TaW1wbGUgUm9vdCBDQTEXMBUGA1UEAwwOU2ltcGxlIFJv
b3QgQ0EwHhcNMjIxMTE0MDQxNTEzWhcNMzIxMTEzMDQxNTEzWjB6MRMwEQYKCZIm
iZPyLGQBGRYDb3JnMRYwFAYKCZImiZPyLGQBGRYGc2ltcGxlMRMwEQYDVQQKDApT
aW1wbGUgSW5jMRowGAYDVQQLDBFTaW1wbGUgU2lnbmluZyBDQTEaMBgGA1UEAwwR
U2ltcGxlIFNpZ25pbmcgQ0EwggEiMA0GCSqGSIb3DQEBAQUAA4IBDwAwggEKAoIB
AQC3NJhkVzABXiQwHTkMhwxzhIrMEmgVSelMwKcq0WyThXv8rMSoovUC1EQ9623W
CDEnFghLJ9Evw6j+JFo0DXHMK3DZW9eFX8WhQfndO+uq37VKHYCMy5x69lw+ESSC
YrCJkNTg8K3qP8uuHjLy9SY5X7T3SNApGzNwEcZyahgdcoNBMHWEHfjRTXBPXo4V
kXDPd5XvtOF/e5nWJ0NN740CWKERaVPKIXKcAj+G5FJ6s8pBxFG8SoS+F00K9nq4
vyYcu45nSLSCc4VXvxC9DkixEr713ozep/9vycYMm/AmBtbgKzQaladja3LbiukE
LGZ3uab0BBkLSV2aXuudTUXbAgMBAAGjZjBkMA4GA1UdDwEB/wQEAwIBBjASBgNV
HRMBAf8ECDAGAQH/AgEAMB0GA1UdDgQWBBRvEPEdJx+KvGxDMnaWYLxH9W1IhTAf
BgNVHSMEGDAWgBShY+9siDZnWJfIROztDmDVtJtnPzANBgkqhkiG9w0BAQUFAAOC
AQEAl3prbK4QPCVsnhsl0fh6SuHmHKR6IAB9lY0B6lw9b18qv9l4UoDH8kcqJW2q
ax8NALC2CY7rO00lIsKiGxzFTEJWMvy4pQKdjQ5siObB+Y6puhGaGuOzynqvp2Lz
NuDv2O+wCGoMhuyNEpwSY/wHJmGhwOxeJSDM0We7kIMOEV4J9WdeQEwbZU9Cbhd7
ehhAuYM9RSf189efvEqltYylm0DZsLl0nSGDfIkVyURGxTfu3DuV3BH+69z/JU8v
b7mXDxXLnOW94Z3R63M0aGRM+w9YWct0z7OIuXtSLBQW8zQP2Skc+Tvu993gKP4U
iqIB4YYrhVQyk9p76rdfyW+Rew==
-----END CERTIFICATE-----
Certificate:
    Data:
        Version: 3 (0x2)
        Serial Number: 1 (0x1)
    Signature Algorithm: sha1WithRSAEncryption
        Issuer: DC=org, DC=simple, O=Simple Inc, OU=Simple Root CA, CN=Simple Root CA
        Validity
            Not Before: Nov 14 04:14:02 2022 GMT
            Not After : Nov 13 04:14:02 2032 GMT
        Subject: DC=org, DC=simple, O=Simple Inc, OU=Simple Root CA, CN=Simple Root CA
        Subject Public Key Info:
            Public Key Algorithm: rsaEncryption
                Public-Key: (2048 bit)
                Modulus:
                    00:9a:a6:4f:ef:4a:fb:c8:3d:45:33:dc:78:e0:c8:
                    59:e9:ab:8a:e9:cb:a0:47:77:dd:4a:dd:ae:9f:ee:
                    18:78:75:e5:60:61:30:29:b3:28:a0:79:54:1c:04:
                    7a:63:eb:f9:36:e7:d2:3a:b6:f7:c4:11:0a:4e:04:
                    f8:42:be:80:f9:99:89:4d:4c:65:6a:1f:a0:52:41:
                    74:35:43:d8:6e:7c:e4:93:de:f6:1e:5b:7a:40:1d:
                    b1:56:77:3f:7d:12:6c:37:8d:25:e4:18:08:85:81:
                    dc:0f:59:e5:f4:36:e7:87:7c:e7:b1:08:02:19:46:
                    3e:66:26:44:5b:f8:d3:e9:27:6b:49:7e:1a:a3:5d:
                    00:4e:2e:10:da:53:9a:02:23:cc:eb:d8:2d:31:26:
                    4a:fb:33:25:02:96:9a:db:70:17:ce:26:40:c2:ef:
                    9a:a7:6e:51:96:f4:86:b8:27:fa:21:60:13:1f:00:
                    01:75:7e:ce:83:7b:14:7b:08:b9:be:3a:54:03:b0:
                    8f:64:ad:19:55:24:bd:86:74:92:79:fa:fd:f6:89:
                    2a:44:6b:c2:42:fa:62:ee:07:06:4c:43:98:60:b8:
                    72:22:23:91:3d:ce:ff:47:55:9e:1b:5c:1c:bd:98:
                    d5:12:31:7b:8e:88:2b:86:cd:bf:5d:b5:fc:32:c1:
                    3b:25
                Exponent: 65537 (0x10001)
        X509v3 extensions:
            X509v3 Key Usage: critical
                Certificate Sign, CRL Sign
            X509v3 Basic Constraints: critical
                CA:TRUE
            X509v3 Subject Key Identifier: 
                A1:63:EF:6C:88:36:67:58:97:C8:44:EC:ED:0E:60:D5:B4:9B:67:3F
            X509v3 Authority Key Identifier: 
                keyid:A1:63:EF:6C:88:36:67:58:97:C8:44:EC:ED:0E:60:D5:B4:9B:67:3F

    Signature Algorithm: sha1WithRSAEncryption
         75:33:25:7a:4f:69:d8:b9:ac:ad:e2:ce:9f:db:b9:72:75:e6:
         14:63:ed:f3:fd:0c:d9:c4:07:e3:ca:cf:dc:5c:f2:8b:24:fe:
         29:64:84:c2:db:15:92:60:0f:e3:62:d1:83:a8:c6:3a:3b:c6:
         f2:a4:08:99:00:6e:2f:2b:c6:35:ca:96:b0:fd:80:08:84:fa:
         47:41:27:c5:17:f6:a5:9a:77:5a:60:9c:23:88:bc:51:29:4d:
         f8:18:33:1b:67:b7:e2:55:5f:ed:79:b9:ec:9c:ce:1b:55:97:
         f7:d8:39:fd:33:f0:dc:b5:93:b4:c6:f5:20:fa:7a:c9:3a:db:
         9f:1d:72:56:36:ee:79:e5:91:50:05:c0:e9:4c:db:59:f4:a7:
         89:a8:8e:99:c2:df:86:ef:b6:91:ab:95:f5:16:5d:8f:3d:3c:
         61:33:fc:ab:cc:c6:8c:6e:b0:97:bf:27:71:37:47:41:06:3c:
         8e:b1:82:42:eb:f1:93:b9:e6:6a:44:a4:da:d3:be:48:15:92:
         38:67:55:3e:bf:cc:eb:2b:36:5d:23:cc:a9:e7:26:42:8c:32:
         51:f4:d8:f7:e3:35:96:a5:2c:94:09:79:b3:f6:2a:f2:ee:a8:
         71:1c:da:35:41:35:69:92:7d:83:8e:78:9e:bb:61:50:d1:75:
         65:91:c4:81
-----BEGIN CERTIFICATE-----
MIIDxjCCAq6gAwIBAgIBATANBgkqhkiG9w0BAQUFADB0MRMwEQYKCZImiZPyLGQB
GRYDb3JnMRYwFAYKCZImiZPyLGQBGRYGc2ltcGxlMRMwEQYDVQQKDApTaW1wbGUg
SW5jMRcwFQYDVQQLDA5TaW1wbGUgUm9vdCBDQTEXMBUGA1UEAwwOU2ltcGxlIFJv
b3QgQ0EwHhcNMjIxMTE0MDQxNDAyWhcNMzIxMTEzMDQxNDAyWjB0MRMwEQYKCZIm
iZPyLGQBGRYDb3JnMRYwFAYKCZImiZPyLGQBGRYGc2ltcGxlMRMwEQYDVQQKDApT
aW1wbGUgSW5jMRcwFQYDVQQLDA5TaW1wbGUgUm9vdCBDQTEXMBUGA1UEAwwOU2lt
cGxlIFJvb3QgQ0EwggEiMA0GCSqGSIb3DQEBAQUAA4IBDwAwggEKAoIBAQCapk/v
SvvIPUUz3HjgyFnpq4rpy6BHd91K3a6f7hh4deVgYTApsyigeVQcBHpj6/k259I6
tvfEEQpOBPhCvoD5mYlNTGVqH6BSQXQ1Q9hufOST3vYeW3pAHbFWdz99Emw3jSXk
GAiFgdwPWeX0NueHfOexCAIZRj5mJkRb+NPpJ2tJfhqjXQBOLhDaU5oCI8zr2C0x
Jkr7MyUClprbcBfOJkDC75qnblGW9Ia4J/ohYBMfAAF1fs6DexR7CLm+OlQDsI9k
rRlVJL2GdJJ5+v32iSpEa8JC+mLuBwZMQ5hguHIiI5E9zv9HVZ4bXBy9mNUSMXuO
iCuGzb9dtfwywTslAgMBAAGjYzBhMA4GA1UdDwEB/wQEAwIBBjAPBgNVHRMBAf8E
BTADAQH/MB0GA1UdDgQWBBShY+9siDZnWJfIROztDmDVtJtnPzAfBgNVHSMEGDAW
gBShY+9siDZnWJfIROztDmDVtJtnPzANBgkqhkiG9w0BAQUFAAOCAQEAdTMlek9p
2LmsreLOn9u5cnXmFGPt8/0M2cQH48rP3FzyiyT+KWSEwtsVkmAP42LRg6jGOjvG
8qQImQBuLyvGNcqWsP2ACIT6R0EnxRf2pZp3WmCcI4i8USlN+BgzG2e34lVf7Xm5
7JzOG1WX99g5/TPw3LWTtMb1IPp6yTrbnx1yVjbueeWRUAXA6UzbWfSniaiOmcLf
hu+2kauV9RZdjz08YTP8q8zGjG6wl78ncTdHQQY8jrGCQuvxk7nmakSk2tO+SBWS
OGdVPr/M6ys2XSPMqecmQowyUfTY9+M1lqUslAl5s/Yq8u6ocRzaNUE1aZJ9g454
nrthUNF1ZZHEgQ==
-----END CERTIFICATE-----
