Certificate:
    Data:
        Version: 3 (0x2)
        Serial Number: 2 (0x2)
    Signature Algorithm: sha1WithRSAEncryption
        Issuer: DC=org, DC=simple, O=Simple Inc, OU=Simple Root CA, CN=Simple Root CA
        Validity
            Not Before: Nov 14 04:15:13 2022 GMT
            Not After : Nov 13 04:15:13 2032 GMT
        Subject: DC=org, DC=simple, O=Simple Inc, OU=Simple Signing CA, CN=Simple Signing CA
        Subject Public Key Info:
            Public Key Algorithm: rsaEncryption
                Public-Key: (2048 bit)
                Modulus:
                    00:b7:34:98:64:57:30:01:5e:24:30:1d:39:0c:87:
                    0c:73:84:8a:cc:12:68:15:49:e9:4c:c0:a7:2a:d1:
                    6c:93:85:7b:fc:ac:c4:a8:a2:f5:02:d4:44:3d:eb:
                    6d:d6:08:31:27:16:08:4b:27:d1:2f:c3:a8:fe:24:
                    5a:34:0d:71:cc:2b:70:d9:5b:d7:85:5f:c5:a1:41:
                    f9:dd:3b:eb:aa:df:b5:4a:1d:80:8c:cb:9c:7a:f6:
                    5c:3e:11:24:82:62:b0:89:90:d4:e0:f0:ad:ea:3f:
                    cb:ae:1e:32:f2:f5:26:39:5f:b4:f7:48:d0:29:1b:
                    33:70:11:c6:72:6a:18:1d:72:83:41:30:75:84:1d:
                    f8:d1:4d:70:4f:5e:8e:15:91:70:cf:77:95:ef:b4:
                    e1:7f:7b:99:d6:27:43:4d:ef:8d:02:58:a1:11:69:
                    53:ca:21:72:9c:02:3f:86:e4:52:7a:b3:ca:41:c4:
                    51:bc:4a:84:be:17:4d:0a:f6:7a:b8:bf:26:1c:bb:
                    8e:67:48:b4:82:73:85:57:bf:10:bd:0e:48:b1:12:
                    be:f5:de:8c:de:a7:ff:6f:c9:c6:0c:9b:f0:26:06:
                    d6:e0:2b:34:1a:95:a7:63:6b:72:db:8a:e9:04:2c:
                    66:77:b9:a6:f4:04:19:0b:49:5d:9a:5e:eb:9d:4d:
                    45:db
                Exponent: 65537 (0x10001)
        X509v3 extensions:
            X509v3 Key Usage: critical
                Certificate Sign, CRL Sign
            X509v3 Basic Constraints: critical
                CA:TRUE, pathlen:0
            X509v3 Subject Key Identifier: 
                6F:10:F1:1D:27:1F:8A:BC:6C:43:32:76:96:60:BC:47:F5:6D:48:85
            X509v3 Authority Key Identifier: 
                keyid:A1:63:EF:6C:88:36:67:58:97:C8:44:EC:ED:0E:60:D5:B4:9B:67:3F

    Signature Algorithm: sha1WithRSAEncryption
         97:7a:6b:6c:ae:10:3c:25:6c:9e:1b:25:d1:f8:7a:4a:e1:e6:
         1c:a4:7a:20:00:7d:95:8d:01:ea:5c:3d:6f:5f:2a:bf:d9:78:
         52:80:c7:f2:47:2a:25:6d:aa:6b:1f:0d:00:b0:b6:09:8e:eb:
         3b:4d:25:22:c2:a2:1b:1c:c5:4c:42:56:32:fc:b8:a5:02:9d:
         8d:0e:6c:88:e6:c1:f9:8e:a9:ba:11:9a:1a:e3:b3:ca:7a:af:
         a7:62:f3:36:e0:ef:d8:ef:b0:08:6a:0c:86:ec:8d:12:9c:12:
         63:fc:07:26:61:a1:c0:ec:5e:25:20:cc:d1:67:bb:90:83:0e:
         11:5e:09:f5:67:5e:40:4c:1b:65:4f:42:6e:17:7b:7a:18:40:
         b9:83:3d:45:27:f5:f3:d7:9f:bc:4a:a5:b5:8c:a5:9b:40:d9:
         b0:b9:74:9d:21:83:7c:89:15:c9:44:46:c5:37:ee:dc:3b:95:
         dc:11:fe:eb:dc:ff:25:4f:2f:6f:b9:97:0f:15:cb:9c:e5:bd:
         e1:9d:d1:eb:73:34:68:64:4c:fb:0f:58:59:cb:74:cf:b3:88:
         b9:7b:52:2c:14:16:f3:34:0f:d9:29:1c:f9:3b:ee:f7:dd:e0:
         28:fe:14:8a:a2:01:e1:86:2b:85:54:32:93:da:7b:ea:b7:5f:
         c9:6f:91:7b
-----BEGIN CERTIFICATE-----
MIIDzzCCAregAwIBAgIBAjANBgkqhkiG9w0BAQUFADB0MRMwEQYKCZImiZPyLGQB
GRYDb3JnMRYwFAYKCZImiZPyLGQBGRYGc2ltcGxlMRMwEQYDVQQKDApTaW1wbGUg
SW5jMRcwFQYDVQQLDA5TaW1wbGUgUm9vdCBDQTEXMBUGA1UEAwwOU2ltcGxlIFJv
b3QgQ0EwHhcNMjIxMTE0MDQxNTEzWhcNMzIxMTEzMDQxNTEzWjB6MRMwEQYKCZIm
iZPyLGQBGRYDb3JnMRYwFAYKCZImiZPyLGQBGRYGc2ltcGxlMRMwEQYDVQQKDApT
aW1wbGUgSW5jMRowGAYDVQQLDBFTaW1wbGUgU2lnbmluZyBDQTEaMBgGA1UEAwwR
U2ltcGxlIFNpZ25pbmcgQ0EwggEiMA0GCSqGSIb3DQEBAQUAA4IBDwAwggEKAoIB
AQC3NJhkVzABXiQwHTkMhwxzhIrMEmgVSelMwKcq0WyThXv8rMSoovUC1EQ9623W
CDEnFghLJ9Evw6j+JFo0DXHMK3DZW9eFX8WhQfndO+uq37VKHYCMy5x69lw+ESSC
YrCJkNTg8K3qP8uuHjLy9SY5X7T3SNApGzNwEcZyahgdcoNBMHWEHfjRTXBPXo4V
kXDPd5XvtOF/e5nWJ0NN740CWKERaVPKIXKcAj+G5FJ6s8pBxFG8SoS+F00K9nq4
vyYcu45nSLSCc4VXvxC9DkixEr713ozep/9vycYMm/AmBtbgKzQaladja3LbiukE
LGZ3uab0BBkLSV2aXuudTUXbAgMBAAGjZjBkMA4GA1UdDwEB/wQEAwIBBjASBgNV
HRMBAf8ECDAGAQH/AgEAMB0GA1UdDgQWBBRvEPEdJx+KvGxDMnaWYLxH9W1IhTAf
BgNVHSMEGDAWgBShY+9siDZnWJfIROztDmDVtJtnPzANBgkqhkiG9w0BAQUFAAOC
AQEAl3prbK4QPCVsnhsl0fh6SuHmHKR6IAB9lY0B6lw9b18qv9l4UoDH8kcqJW2q
ax8NALC2CY7rO00lIsKiGxzFTEJWMvy4pQKdjQ5siObB+Y6puhGaGuOzynqvp2Lz
NuDv2O+wCGoMhuyNEpwSY/wHJmGhwOxeJSDM0We7kIMOEV4J9WdeQEwbZU9Cbhd7
ehhAuYM9RSf189efvEqltYylm0DZsLl0nSGDfIkVyURGxTfu3DuV3BH+69z/JU8v
b7mXDxXLnOW94Z3R63M0aGRM+w9YWct0z7OIuXtSLBQW8zQP2Skc+Tvu993gKP4U
iqIB4YYrhVQyk9p76rdfyW+Rew==
-----END CERTIFICATE-----
